target datalayout = "e-m:e-p270:32:32-p271:32:32-p272:64:64-i64:64-i128:128-f80:128-n8:16:32:64-S128"
target triple = "x86_64-pc-linux-gnu"

%struct.aom_reader = type { ptr, ptr, %struct.od_ec_dec, i8 }
%struct.od_ec_dec = type { ptr, i32, ptr, ptr, i32, i16, i16 }

; Function Attrs: nounwind uwtable
define hidden zeroext i16 @aom_read_primitive_quniform_(ptr noundef %0, i16 noundef zeroext %1) #0 {
  %3 = alloca i16, align 2
  %4 = alloca ptr, align 8
  %5 = alloca i16, align 2
  %6 = alloca i32, align 4
  %7 = alloca i32, align 4
  %8 = alloca i32, align 4
  store ptr %0, ptr %4, align 8
  store i16 %1, ptr %5, align 2
  %9 = load i16, ptr %5, align 2
  %10 = zext i16 %9 to i32
  %11 = icmp sle i32 %10, 1
  br i1 %11, label %12, label %13

12:                                               ; preds = %2
  store i16 0, ptr %3, align 2
  br label %43

13:                                               ; preds = %2
  %14 = load i16, ptr %5, align 2
  %15 = zext i16 %14 to i32
  %16 = call i32 @get_msb(i32 noundef %15)
  %17 = add nsw i32 %16, 1
  store i32 %17, ptr %6, align 4
  %18 = load i32, ptr %6, align 4
  %19 = shl i32 1, %18
  %20 = load i16, ptr %5, align 2
  %21 = zext i16 %20 to i32
  %22 = sub nsw i32 %19, %21
  store i32 %22, ptr %7, align 4
  %23 = load ptr, ptr %4, align 8
  %24 = load i32, ptr %6, align 4
  %25 = sub nsw i32 %24, 1
  %26 = call i32 @aom_read_literal_(ptr noundef %23, i32 noundef %25)
  store i32 %26, ptr %8, align 4
  %27 = load i32, ptr %8, align 4
  %28 = load i32, ptr %7, align 4
  %29 = icmp slt i32 %27, %28
  br i1 %29, label %30, label %32

30:                                               ; preds = %13
  %31 = load i32, ptr %8, align 4
  br label %40

32:                                               ; preds = %13
  %33 = load i32, ptr %8, align 4
  %34 = shl i32 %33, 1
  %35 = load i32, ptr %7, align 4
  %36 = sub nsw i32 %34, %35
  %37 = load ptr, ptr %4, align 8
  %38 = call i32 @aom_read_bit_(ptr noundef %37)
  %39 = add nsw i32 %36, %38
  br label %40

40:                                               ; preds = %32, %30
  %41 = phi i32 [ %31, %30 ], [ %39, %32 ]
  %42 = trunc i32 %41 to i16
  store i16 %42, ptr %3, align 2
  br label %43

43:                                               ; preds = %40, %12
  %44 = load i16, ptr %3, align 2
  ret i16 %44
}

; Function Attrs: nounwind uwtable
define internal i32 @get_msb(i32 noundef %0) #0 {
  %2 = alloca i32, align 4
  store i32 %0, ptr %2, align 4
  %3 = load i32, ptr %2, align 4
  %4 = call i32 @llvm.ctlz.i32(i32 %3, i1 true)
  %5 = xor i32 31, %4
  ret i32 %5
}

; Function Attrs: nounwind uwtable
define internal i32 @aom_read_literal_(ptr noundef %0, i32 noundef %1) #0 {
  %3 = alloca ptr, align 8
  %4 = alloca i32, align 4
  %5 = alloca i32, align 4
  %6 = alloca i32, align 4
  store ptr %0, ptr %3, align 8
  store i32 %1, ptr %4, align 4
  store i32 0, ptr %5, align 4
  %7 = load i32, ptr %4, align 4
  %8 = sub nsw i32 %7, 1
  store i32 %8, ptr %6, align 4
  br label %9

9:                                                ; preds = %19, %2
  %10 = load i32, ptr %6, align 4
  %11 = icmp sge i32 %10, 0
  br i1 %11, label %12, label %22

12:                                               ; preds = %9
  %13 = load ptr, ptr %3, align 8
  %14 = call i32 @aom_read_bit_(ptr noundef %13)
  %15 = load i32, ptr %6, align 4
  %16 = shl i32 %14, %15
  %17 = load i32, ptr %5, align 4
  %18 = or i32 %17, %16
  store i32 %18, ptr %5, align 4
  br label %19

19:                                               ; preds = %12
  %20 = load i32, ptr %6, align 4
  %21 = add nsw i32 %20, -1
  store i32 %21, ptr %6, align 4
  br label %9, !llvm.loop !4

22:                                               ; preds = %9
  %23 = load i32, ptr %5, align 4
  ret i32 %23
}

; Function Attrs: nounwind uwtable
define internal i32 @aom_read_bit_(ptr noundef %0) #0 {
  %2 = alloca ptr, align 8
  %3 = alloca i32, align 4
  store ptr %0, ptr %2, align 8
  %4 = load ptr, ptr %2, align 8
  %5 = call i32 @aom_read_(ptr noundef %4, i32 noundef 128)
  store i32 %5, ptr %3, align 4
  %6 = load i32, ptr %3, align 4
  ret i32 %6
}

; Function Attrs: nounwind uwtable
define hidden zeroext i16 @aom_read_primitive_subexpfin_(ptr noundef %0, i16 noundef zeroext %1, i16 noundef zeroext %2) #0 {
  %4 = alloca i16, align 2
  %5 = alloca ptr, align 8
  %6 = alloca i16, align 2
  %7 = alloca i16, align 2
  %8 = alloca i32, align 4
  %9 = alloca i32, align 4
  %10 = alloca i32, align 4
  %11 = alloca i32, align 4
  store ptr %0, ptr %5, align 8
  store i16 %1, ptr %6, align 2
  store i16 %2, ptr %7, align 2
  store i32 0, ptr %8, align 4
  store i32 0, ptr %9, align 4
  br label %12

12:                                               ; preds = %58, %3
  %13 = load i32, ptr %8, align 4
  %14 = icmp ne i32 %13, 0
  br i1 %14, label %15, label %21

15:                                               ; preds = %12
  %16 = load i16, ptr %7, align 2
  %17 = zext i16 %16 to i32
  %18 = load i32, ptr %8, align 4
  %19 = add nsw i32 %17, %18
  %20 = sub nsw i32 %19, 1
  br label %24

21:                                               ; preds = %12
  %22 = load i16, ptr %7, align 2
  %23 = zext i16 %22 to i32
  br label %24

24:                                               ; preds = %21, %15
  %25 = phi i32 [ %20, %15 ], [ %23, %21 ]
  store i32 %25, ptr %10, align 4
  %26 = load i32, ptr %10, align 4
  %27 = shl i32 1, %26
  store i32 %27, ptr %11, align 4
  %28 = load i16, ptr %6, align 2
  %29 = zext i16 %28 to i32
  %30 = load i32, ptr %9, align 4
  %31 = load i32, ptr %11, align 4
  %32 = mul nsw i32 3, %31
  %33 = add nsw i32 %30, %32
  %34 = icmp sle i32 %29, %33
  br i1 %34, label %35, label %47

35:                                               ; preds = %24
  %36 = load ptr, ptr %5, align 8
  %37 = load i16, ptr %6, align 2
  %38 = zext i16 %37 to i32
  %39 = load i32, ptr %9, align 4
  %40 = sub nsw i32 %38, %39
  %41 = trunc i32 %40 to i16
  %42 = call zeroext i16 @aom_read_primitive_quniform_(ptr noundef %36, i16 noundef zeroext %41)
  %43 = zext i16 %42 to i32
  %44 = load i32, ptr %9, align 4
  %45 = add nsw i32 %43, %44
  %46 = trunc i32 %45 to i16
  store i16 %46, ptr %4, align 2
  br label %64

47:                                               ; preds = %24
  %48 = load ptr, ptr %5, align 8
  %49 = call i32 @aom_read_bit_(ptr noundef %48)
  %50 = icmp ne i32 %49, 0
  br i1 %50, label %58, label %51

51:                                               ; preds = %47
  %52 = load ptr, ptr %5, align 8
  %53 = load i32, ptr %10, align 4
  %54 = call i32 @aom_read_literal_(ptr noundef %52, i32 noundef %53)
  %55 = load i32, ptr %9, align 4
  %56 = add nsw i32 %54, %55
  %57 = trunc i32 %56 to i16
  store i16 %57, ptr %4, align 2
  br label %64

58:                                               ; preds = %47
  %59 = load i32, ptr %8, align 4
  %60 = add nsw i32 %59, 1
  store i32 %60, ptr %8, align 4
  %61 = load i32, ptr %11, align 4
  %62 = load i32, ptr %9, align 4
  %63 = add nsw i32 %62, %61
  store i32 %63, ptr %9, align 4
  br label %12

64:                                               ; preds = %51, %35
  %65 = load i16, ptr %4, align 2
  ret i16 %65
}

; Function Attrs: nounwind uwtable
define hidden zeroext i16 @aom_read_primitive_refsubexpfin_(ptr noundef %0, i16 noundef zeroext %1, i16 noundef zeroext %2, i16 noundef zeroext %3) #0 {
  %5 = alloca ptr, align 8
  %6 = alloca i16, align 2
  %7 = alloca i16, align 2
  %8 = alloca i16, align 2
  store ptr %0, ptr %5, align 8
  store i16 %1, ptr %6, align 2
  store i16 %2, ptr %7, align 2
  store i16 %3, ptr %8, align 2
  %9 = load i16, ptr %6, align 2
  %10 = load i16, ptr %8, align 2
  %11 = load ptr, ptr %5, align 8
  %12 = load i16, ptr %6, align 2
  %13 = load i16, ptr %7, align 2
  %14 = call zeroext i16 @aom_read_primitive_subexpfin_(ptr noundef %11, i16 noundef zeroext %12, i16 noundef zeroext %13)
  %15 = call zeroext i16 @inv_recenter_finite_nonneg(i16 noundef zeroext %9, i16 noundef zeroext %10, i16 noundef zeroext %14)
  ret i16 %15
}

; Function Attrs: nounwind uwtable
define internal zeroext i16 @inv_recenter_finite_nonneg(i16 noundef zeroext %0, i16 noundef zeroext %1, i16 noundef zeroext %2) #0 {
  %4 = alloca i16, align 2
  %5 = alloca i16, align 2
  %6 = alloca i16, align 2
  %7 = alloca i16, align 2
  store i16 %0, ptr %5, align 2
  store i16 %1, ptr %6, align 2
  store i16 %2, ptr %7, align 2
  %8 = load i16, ptr %6, align 2
  %9 = zext i16 %8 to i32
  %10 = shl i32 %9, 1
  %11 = load i16, ptr %5, align 2
  %12 = zext i16 %11 to i32
  %13 = icmp sle i32 %10, %12
  br i1 %13, label %14, label %18

14:                                               ; preds = %3
  %15 = load i16, ptr %6, align 2
  %16 = load i16, ptr %7, align 2
  %17 = call zeroext i16 @inv_recenter_nonneg(i16 noundef zeroext %15, i16 noundef zeroext %16)
  store i16 %17, ptr %4, align 2
  br label %34

18:                                               ; preds = %3
  %19 = load i16, ptr %5, align 2
  %20 = zext i16 %19 to i32
  %21 = sub nsw i32 %20, 1
  %22 = load i16, ptr %5, align 2
  %23 = zext i16 %22 to i32
  %24 = sub nsw i32 %23, 1
  %25 = load i16, ptr %6, align 2
  %26 = zext i16 %25 to i32
  %27 = sub nsw i32 %24, %26
  %28 = trunc i32 %27 to i16
  %29 = load i16, ptr %7, align 2
  %30 = call zeroext i16 @inv_recenter_nonneg(i16 noundef zeroext %28, i16 noundef zeroext %29)
  %31 = zext i16 %30 to i32
  %32 = sub nsw i32 %21, %31
  %33 = trunc i32 %32 to i16
  store i16 %33, ptr %4, align 2
  br label %34

34:                                               ; preds = %18, %14
  %35 = load i16, ptr %4, align 2
  ret i16 %35
}

; Function Attrs: nocallback nofree nosync nounwind speculatable willreturn memory(none)
declare i32 @llvm.ctlz.i32(i32, i1 immarg) #1

; Function Attrs: nounwind uwtable
define internal i32 @aom_read_(ptr noundef %0, i32 noundef %1) #0 {
  %3 = alloca ptr, align 8
  %4 = alloca i32, align 4
  %5 = alloca i32, align 4
  %6 = alloca i32, align 4
  store ptr %0, ptr %3, align 8
  store i32 %1, ptr %4, align 4
  %7 = load i32, ptr %4, align 4
  %8 = shl i32 %7, 15
  %9 = sub nsw i32 8388607, %8
  %10 = load i32, ptr %4, align 4
  %11 = add nsw i32 %9, %10
  %12 = ashr i32 %11, 8
  store i32 %12, ptr %5, align 4
  %13 = load ptr, ptr %3, align 8
  %14 = getelementptr inbounds nuw %struct.aom_reader, ptr %13, i32 0, i32 2
  %15 = load i32, ptr %5, align 4
  %16 = call i32 @od_ec_decode_bool_q15(ptr noundef %14, i32 noundef %15)
  store i32 %16, ptr %6, align 4
  %17 = load i32, ptr %6, align 4
  ret i32 %17
}

declare i32 @od_ec_decode_bool_q15(ptr noundef, i32 noundef) #2

; Function Attrs: nounwind uwtable
define internal zeroext i16 @inv_recenter_nonneg(i16 noundef zeroext %0, i16 noundef zeroext %1) #0 {
  %3 = alloca i16, align 2
  %4 = alloca i16, align 2
  %5 = alloca i16, align 2
  store i16 %0, ptr %4, align 2
  store i16 %1, ptr %5, align 2
  %6 = load i16, ptr %5, align 2
  %7 = zext i16 %6 to i32
  %8 = load i16, ptr %4, align 2
  %9 = zext i16 %8 to i32
  %10 = shl i32 %9, 1
  %11 = icmp sgt i32 %7, %10
  br i1 %11, label %12, label %14

12:                                               ; preds = %2
  %13 = load i16, ptr %5, align 2
  store i16 %13, ptr %3, align 2
  br label %36

14:                                               ; preds = %2
  %15 = load i16, ptr %5, align 2
  %16 = zext i16 %15 to i32
  %17 = and i32 %16, 1
  %18 = icmp eq i32 %17, 0
  br i1 %18, label %19, label %27

19:                                               ; preds = %14
  %20 = load i16, ptr %5, align 2
  %21 = zext i16 %20 to i32
  %22 = ashr i32 %21, 1
  %23 = load i16, ptr %4, align 2
  %24 = zext i16 %23 to i32
  %25 = add nsw i32 %22, %24
  %26 = trunc i32 %25 to i16
  store i16 %26, ptr %3, align 2
  br label %36

27:                                               ; preds = %14
  %28 = load i16, ptr %4, align 2
  %29 = zext i16 %28 to i32
  %30 = load i16, ptr %5, align 2
  %31 = zext i16 %30 to i32
  %32 = add nsw i32 %31, 1
  %33 = ashr i32 %32, 1
  %34 = sub nsw i32 %29, %33
  %35 = trunc i32 %34 to i16
  store i16 %35, ptr %3, align 2
  br label %36

36:                                               ; preds = %27, %19, %12
  %37 = load i16, ptr %3, align 2
  ret i16 %37
}


!llvm.module.flags = !{!0, !1, !2, !3}

!0 = !{i32 1, !"wchar_size", i32 4}
!1 = !{i32 8, !"PIC Level", i32 2}
!2 = !{i32 7, !"uwtable", i32 2}
!3 = !{i32 7, !"frame-pointer", i32 2}
!4 = distinct !{!4, !5}
!5 = !{!"llvm.loop.mustprogress"}
